target datalayout = "e-m:e-p270:32:32-p271:32:32-p272:64:64-i64:64-i128:128-f80:128-n8:16:32:64-S128"
target triple = "x86_64-pc-linux-gnu"

%struct.pmix_list_t = type { %struct.pmix_object_t, %struct.pmix_list_item_t, i64 }
%struct.pmix_object_t = type { %union.pthread_mutex_t, ptr, i32, %struct.pmix_tma }
%union.pthread_mutex_t = type { %struct.__pthread_mutex_s }
%struct.__pthread_mutex_s = type { i32, i32, i32, i32, i32, i16, i16, %struct.__pthread_internal_list }
%struct.__pthread_internal_list = type { ptr, ptr }
%struct.pmix_tma = type { ptr, ptr, ptr, ptr, ptr, ptr, ptr, ptr }
%struct.pmix_list_item_t = type { %struct.pmix_object_t, ptr, ptr, i32 }
%struct.timeval = type { i64, i64 }
%struct.pmix_proc = type { [256 x i8], i32 }
%struct.pmix_class_t = type { ptr, ptr, ptr, ptr, i32, i32, ptr, ptr, i64 }
%struct.event = type { %struct.event_callback, %union.anon.0, i32, ptr, %union.anon.2, i16, i16, %struct.timeval }
%struct.event_callback = type { %struct.anon, i16, i8, i8, %union.anon, ptr }
%struct.anon = type { ptr, ptr }
%union.anon = type { ptr }
%union.anon.0 = type { %struct.anon.1 }
%struct.anon.1 = type { ptr, ptr }
%union.anon.2 = type { %struct.anon.3 }
%struct.anon.3 = type { %struct.anon.4, %struct.timeval }
%struct.anon.4 = type { ptr, ptr }
%struct.prte_oob_tcp_peer_t = type { %struct.pmix_list_item_t, %struct.pmix_proc, ptr, i32, %struct.pmix_list_t, ptr, i32, i32, %struct.event, i8, %struct.event, i8, %struct.event, i8, %struct.pmix_list_t, ptr, ptr }

@pmix_class_init_epoch = external global i32, align 4
@pmix_list_t_class = external global %struct.pmix_class_t, align 8

; Function Attrs: inlinehint nounwind uwtable
define internal void @pmix_obj_run_constructors(ptr noundef %0) #2 {
  %2 = alloca ptr, align 8
  %3 = alloca ptr, align 8
  store ptr %0, ptr %2, align 8, !tbaa !51
  call void @llvm.lifetime.start.p0(i64 8, ptr %3) #10
  %4 = load ptr, ptr %2, align 8, !tbaa !51
  %5 = getelementptr inbounds nuw %struct.pmix_object_t, ptr %4, i32 0, i32 1
  %6 = load ptr, ptr %5, align 8, !tbaa !55
  %7 = getelementptr inbounds nuw %struct.pmix_class_t, ptr %6, i32 0, i32 6
  %8 = load ptr, ptr %7, align 8, !tbaa !95
  store ptr %8, ptr %3, align 8, !tbaa !9
  br label %9

9:                                                ; preds = %13, %1
  %10 = load ptr, ptr %3, align 8, !tbaa !9
  %11 = load ptr, ptr %10, align 8, !tbaa !9
  %12 = icmp ne ptr null, %11
  br i1 %12, label %13, label %19

13:                                               ; preds = %9
  %14 = load ptr, ptr %3, align 8, !tbaa !9
  %15 = load ptr, ptr %14, align 8, !tbaa !9
  %16 = load ptr, ptr %2, align 8, !tbaa !51
  call void %15(ptr noundef %16)
  %17 = load ptr, ptr %3, align 8, !tbaa !9
  %18 = getelementptr inbounds nuw ptr, ptr %17, i32 1
  store ptr %18, ptr %3, align 8, !tbaa !9
  br label %9, !llvm.loop !96

19:                                               ; preds = %9
  call void @llvm.lifetime.end.p0(i64 8, ptr %3) #10
  ret void
}

; Function Attrs: inlinehint nounwind uwtable
define internal void @pmix_obj_construct_tma(ptr noundef %0, ptr noundef %1) #2 {
  %3 = alloca ptr, align 8
  %4 = alloca ptr, align 8
  store ptr %0, ptr %3, align 8, !tbaa !51
  store ptr %1, ptr %4, align 8, !tbaa !60
  %5 = load ptr, ptr %4, align 8, !tbaa !60
  %6 = icmp eq ptr null, %5
  br i1 %6, label %7, label %32

7:                                                ; preds = %2
  %8 = load ptr, ptr %3, align 8, !tbaa !51
  %9 = getelementptr inbounds nuw %struct.pmix_object_t, ptr %8, i32 0, i32 3
  %10 = getelementptr inbounds nuw %struct.pmix_tma, ptr %9, i32 0, i32 0
  store ptr null, ptr %10, align 8, !tbaa !87
  %11 = load ptr, ptr %3, align 8, !tbaa !51
  %12 = getelementptr inbounds nuw %struct.pmix_object_t, ptr %11, i32 0, i32 3
  %13 = getelementptr inbounds nuw %struct.pmix_tma, ptr %12, i32 0, i32 1
  store ptr null, ptr %13, align 8, !tbaa !88
  %14 = load ptr, ptr %3, align 8, !tbaa !51
  %15 = getelementptr inbounds nuw %struct.pmix_object_t, ptr %14, i32 0, i32 3
  %16 = getelementptr inbounds nuw %struct.pmix_tma, ptr %15, i32 0, i32 2
  store ptr null, ptr %16, align 8, !tbaa !89
  %17 = load ptr, ptr %3, align 8, !tbaa !51
  %18 = getelementptr inbounds nuw %struct.pmix_object_t, ptr %17, i32 0, i32 3
  %19 = getelementptr inbounds nuw %struct.pmix_tma, ptr %18, i32 0, i32 3
  store ptr null, ptr %19, align 8, !tbaa !90
  %20 = load ptr, ptr %3, align 8, !tbaa !51
  %21 = getelementptr inbounds nuw %struct.pmix_object_t, ptr %20, i32 0, i32 3
  %22 = getelementptr inbounds nuw %struct.pmix_tma, ptr %21, i32 0, i32 4
  store ptr null, ptr %22, align 8, !tbaa !91
  %23 = load ptr, ptr %3, align 8, !tbaa !51
  %24 = getelementptr inbounds nuw %struct.pmix_object_t, ptr %23, i32 0, i32 3
  %25 = getelementptr inbounds nuw %struct.pmix_tma, ptr %24, i32 0, i32 5
  store ptr null, ptr %25, align 8, !tbaa !53
  %26 = load ptr, ptr %3, align 8, !tbaa !51
  %27 = getelementptr inbounds nuw %struct.pmix_object_t, ptr %26, i32 0, i32 3
  %28 = getelementptr inbounds nuw %struct.pmix_tma, ptr %27, i32 0, i32 6
  store ptr null, ptr %28, align 8, !tbaa !92
  %29 = load ptr, ptr %3, align 8, !tbaa !51
  %30 = getelementptr inbounds nuw %struct.pmix_object_t, ptr %29, i32 0, i32 3
  %31 = getelementptr inbounds nuw %struct.pmix_tma, ptr %30, i32 0, i32 7
  store ptr null, ptr %31, align 8, !tbaa !93
  br label %36

32:                                               ; preds = %2
  %33 = load ptr, ptr %3, align 8, !tbaa !51
  %34 = getelementptr inbounds nuw %struct.pmix_object_t, ptr %33, i32 0, i32 3
  %35 = load ptr, ptr %4, align 8, !tbaa !60
  call void @llvm.memcpy.p0.p0.i64(ptr align 8 %34, ptr align 8 %35, i64 64, i1 false), !tbaa.struct !94
  br label %36

36:                                               ; preds = %32, %7
  ret void
}

; Function Attrs: nounwind uwtable
define internal void @peer_cons(ptr noundef %0) #0 {
  %2 = alloca ptr, align 8
  store ptr %0, ptr %2, align 8, !tbaa !9
  %3 = load ptr, ptr %2, align 8, !tbaa !9
  %4 = getelementptr inbounds nuw %struct.prte_oob_tcp_peer_t, ptr %3, i32 0, i32 2
  store ptr null, ptr %4, align 8, !tbaa !63
  %5 = load ptr, ptr %2, align 8, !tbaa !9
  %6 = getelementptr inbounds nuw %struct.prte_oob_tcp_peer_t, ptr %5, i32 0, i32 3
  store i32 -1, ptr %6, align 8, !tbaa !65
  br label %7

7:                                                ; preds = %1
  br label %8

8:                                                ; preds = %7
  br label %9

9:                                                ; preds = %8
  %10 = load i32, ptr @pmix_class_init_epoch, align 4, !tbaa !3
  %11 = load i32, ptr getelementptr inbounds nuw (%struct.pmix_class_t, ptr @pmix_list_t_class, i32 0, i32 4), align 8, !tbaa !66
  %12 = icmp ne i32 %10, %11
  br i1 %12, label %13, label %14

13:                                               ; preds = %9
  call void @pmix_class_initialize(ptr noundef @pmix_list_t_class)
  br label %14

14:                                               ; preds = %13, %9
  %15 = load ptr, ptr %2, align 8, !tbaa !9
  %16 = getelementptr inbounds nuw %struct.prte_oob_tcp_peer_t, ptr %15, i32 0, i32 4
  %17 = getelementptr inbounds nuw %struct.pmix_object_t, ptr %16, i32 0, i32 1
  store ptr @pmix_list_t_class, ptr %17, align 8, !tbaa !55
  %18 = load ptr, ptr %2, align 8, !tbaa !9
  %19 = getelementptr inbounds nuw %struct.prte_oob_tcp_peer_t, ptr %18, i32 0, i32 4
  %20 = getelementptr inbounds nuw %struct.pmix_object_t, ptr %19, i32 0, i32 2
  store i32 1, ptr %20, align 8, !tbaa !54
  %21 = load ptr, ptr %2, align 8, !tbaa !9
  %22 = getelementptr inbounds nuw %struct.prte_oob_tcp_peer_t, ptr %21, i32 0, i32 4
  call void @pmix_obj_construct_tma(ptr noundef %22, ptr noundef null)
  %23 = load ptr, ptr %2, align 8, !tbaa !9
  %24 = getelementptr inbounds nuw %struct.prte_oob_tcp_peer_t, ptr %23, i32 0, i32 4
  call void @pmix_obj_run_constructors(ptr noundef %24)
  br label %25

25:                                               ; preds = %14
  br label %26

26:                                               ; preds = %25
  br label %27

27:                                               ; preds = %26
  %28 = load ptr, ptr %2, align 8, !tbaa !9
  %29 = getelementptr inbounds nuw %struct.prte_oob_tcp_peer_t, ptr %28, i32 0, i32 5
  store ptr null, ptr %29, align 8, !tbaa !67
  %30 = load ptr, ptr %2, align 8, !tbaa !9
  %31 = getelementptr inbounds nuw %struct.prte_oob_tcp_peer_t, ptr %30, i32 0, i32 6
  store i32 0, ptr %31, align 8, !tbaa !68
  %32 = load ptr, ptr %2, align 8, !tbaa !9
  %33 = getelementptr inbounds nuw %struct.prte_oob_tcp_peer_t, ptr %32, i32 0, i32 7
  store i32 0, ptr %33, align 4, !tbaa !69
  br label %34

34:                                               ; preds = %27
  br label %35

35:                                               ; preds = %34
  br label %36

36:                                               ; preds = %35
  %37 = load i32, ptr @pmix_class_init_epoch, align 4, !tbaa !3
  %38 = load i32, ptr getelementptr inbounds nuw (%struct.pmix_class_t, ptr @pmix_list_t_class, i32 0, i32 4), align 8, !tbaa !66
  %39 = icmp ne i32 %37, %38
  br i1 %39, label %40, label %41

40:                                               ; preds = %36
  call void @pmix_class_initialize(ptr noundef @pmix_list_t_class)
  br label %41

41:                                               ; preds = %40, %36
  %42 = load ptr, ptr %2, align 8, !tbaa !9
  %43 = getelementptr inbounds nuw %struct.prte_oob_tcp_peer_t, ptr %42, i32 0, i32 14
  %44 = getelementptr inbounds nuw %struct.pmix_object_t, ptr %43, i32 0, i32 1
  store ptr @pmix_list_t_class, ptr %44, align 8, !tbaa !55
  %45 = load ptr, ptr %2, align 8, !tbaa !9
  %46 = getelementptr inbounds nuw %struct.prte_oob_tcp_peer_t, ptr %45, i32 0, i32 14
  %47 = getelementptr inbounds nuw %struct.pmix_object_t, ptr %46, i32 0, i32 2
  store i32 1, ptr %47, align 8, !tbaa !54
  %48 = load ptr, ptr %2, align 8, !tbaa !9
  %49 = getelementptr inbounds nuw %struct.prte_oob_tcp_peer_t, ptr %48, i32 0, i32 14
  call void @pmix_obj_construct_tma(ptr noundef %49, ptr noundef null)
  %50 = load ptr, ptr %2, align 8, !tbaa !9
  %51 = getelementptr inbounds nuw %struct.prte_oob_tcp_peer_t, ptr %50, i32 0, i32 14
  call void @pmix_obj_run_constructors(ptr noundef %51)
  br label %52

52:                                               ; preds = %41
  br label %53

53:                                               ; preds = %52
  br label %54

54:                                               ; preds = %53
  %55 = load ptr, ptr %2, align 8, !tbaa !9
  %56 = getelementptr inbounds nuw %struct.prte_oob_tcp_peer_t, ptr %55, i32 0, i32 15
  store ptr null, ptr %56, align 8, !tbaa !70
  %57 = load ptr, ptr %2, align 8, !tbaa !9
  %58 = getelementptr inbounds nuw %struct.prte_oob_tcp_peer_t, ptr %57, i32 0, i32 16
  store ptr null, ptr %58, align 8, !tbaa !71
  %59 = load ptr, ptr %2, align 8, !tbaa !9
  %60 = getelementptr inbounds nuw %struct.prte_oob_tcp_peer_t, ptr %59, i32 0, i32 9
  store i8 0, ptr %60, align 8, !tbaa !72
  %61 = load ptr, ptr %2, align 8, !tbaa !9
  %62 = getelementptr inbounds nuw %struct.prte_oob_tcp_peer_t, ptr %61, i32 0, i32 11
  store i8 0, ptr %62, align 8, !tbaa !73
  %63 = load ptr, ptr %2, align 8, !tbaa !9
  %64 = getelementptr inbounds nuw %struct.prte_oob_tcp_peer_t, ptr %63, i32 0, i32 13
  store i8 0, ptr %64, align 8, !tbaa !74
  ret void
}