; Function Attrs: nounwind uwtable
define internal void @peer_cons(ptr noundef initializes((408, 420), (464, 476), (480, 544)) %0) #0 {
  %2 = getelementptr inbounds nuw i8, ptr %0, i64 408
  store ptr null, ptr %2, align 8, !tbaa !53
  %3 = getelementptr inbounds nuw i8, ptr %0, i64 416
  store i32 -1, ptr %3, align 8, !tbaa !55
  %4 = load i32, ptr @pmix_class_init_epoch, align 4, !tbaa !44
  %5 = load i32, ptr getelementptr inbounds nuw (i8, ptr @pmix_list_t_class, i64 32), align 8, !tbaa !56
  %.not = icmp eq i32 %4, %5
  br i1 %.not, label %7, label %6

6:                                                ; preds = %1
  tail call void @pmix_class_initialize(ptr noundef nonnull @pmix_list_t_class) #11
  br label %7

7:                                                ; preds = %6, %1
  %8 = getelementptr inbounds nuw i8, ptr %0, i64 424
  %9 = getelementptr inbounds nuw i8, ptr %0, i64 464
  store ptr @pmix_list_t_class, ptr %9, align 8, !tbaa !46
  %10 = getelementptr inbounds nuw i8, ptr %0, i64 472
  store i32 1, ptr %10, align 8, !tbaa !45
  %11 = getelementptr inbounds nuw i8, ptr %0, i64 480
  tail call void @llvm.memset.p0.i64(ptr noundef nonnull align 8 dereferenceable(64) %11, i8 0, i64 64, i1 false)
  %12 = load ptr, ptr getelementptr inbounds nuw (i8, ptr @pmix_list_t_class, i64 40), align 8, !tbaa !57
  %13 = load ptr, ptr %12, align 8, !tbaa !49
  %.not6.i = icmp eq ptr %13, null
  br i1 %.not6.i, label %pmix_obj_run_constructors.exit, label %.lr.ph.i

.lr.ph.i:                                         ; preds = %7, %.lr.ph.i
  %14 = phi ptr [ %16, %.lr.ph.i ], [ %13, %7 ]
  %.07.i = phi ptr [ %15, %.lr.ph.i ], [ %12, %7 ]
  tail call void %14(ptr noundef nonnull %8) #11
  %15 = getelementptr inbounds nuw i8, ptr %.07.i, i64 8
  %16 = load ptr, ptr %15, align 8, !tbaa !49
  %.not.i = icmp eq ptr %16, null
  br i1 %.not.i, label %pmix_obj_run_constructors.exit, label %.lr.ph.i, !llvm.loop !58

pmix_obj_run_constructors.exit:                   ; preds = %.lr.ph.i, %7
  %17 = getelementptr inbounds nuw i8, ptr %0, i64 696
  tail call void @llvm.memset.p0.i64(ptr noundef nonnull align 8 dereferenceable(16) %17, i8 0, i64 16, i1 false)
  %18 = load i32, ptr @pmix_class_init_epoch, align 4, !tbaa !44
  %19 = load i32, ptr getelementptr inbounds nuw (i8, ptr @pmix_list_t_class, i64 32), align 8, !tbaa !56
  %.not18 = icmp eq i32 %18, %19
  br i1 %.not18, label %21, label %20

20:                                               ; preds = %pmix_obj_run_constructors.exit
  tail call void @pmix_class_initialize(ptr noundef nonnull @pmix_list_t_class) #11
  br label %21

21:                                               ; preds = %20, %pmix_obj_run_constructors.exit
  %22 = getelementptr inbounds nuw i8, ptr %0, i64 1120
  %23 = getelementptr inbounds nuw i8, ptr %0, i64 1160
  store ptr @pmix_list_t_class, ptr %23, align 8, !tbaa !46
  %24 = getelementptr inbounds nuw i8, ptr %0, i64 1168
  store i32 1, ptr %24, align 8, !tbaa !45
  %25 = getelementptr inbounds nuw i8, ptr %0, i64 1176
  tail call void @llvm.memset.p0.i64(ptr noundef nonnull align 8 dereferenceable(64) %25, i8 0, i64 64, i1 false)
  %26 = load ptr, ptr getelementptr inbounds nuw (i8, ptr @pmix_list_t_class, i64 40), align 8, !tbaa !57
  %27 = load ptr, ptr %26, align 8, !tbaa !49
  %.not6.i19 = icmp eq ptr %27, null
  br i1 %.not6.i19, label %pmix_obj_run_constructors.exit23, label %.lr.ph.i20

.lr.ph.i20:                                       ; preds = %21, %.lr.ph.i20
  %28 = phi ptr [ %30, %.lr.ph.i20 ], [ %27, %21 ]
  %.07.i21 = phi ptr [ %29, %.lr.ph.i20 ], [ %26, %21 ]
  tail call void %28(ptr noundef nonnull %22) #11
  %29 = getelementptr inbounds nuw i8, ptr %.07.i21, i64 8
  %30 = load ptr, ptr %29, align 8, !tbaa !49
  %.not.i22 = icmp eq ptr %30, null
  br i1 %.not.i22, label %pmix_obj_run_constructors.exit23, label %.lr.ph.i20, !llvm.loop !58

pmix_obj_run_constructors.exit23:                 ; preds = %.lr.ph.i20, %21
  %31 = getelementptr inbounds nuw i8, ptr %0, i64 1392
  %32 = getelementptr inbounds nuw i8, ptr %0, i64 840
  store i8 0, ptr %32, align 8, !tbaa !59
  %33 = getelementptr inbounds nuw i8, ptr %0, i64 976
  store i8 0, ptr %33, align 8, !tbaa !60
  %34 = getelementptr inbounds nuw i8, ptr %0, i64 1112
  store i8 0, ptr %34, align 8, !tbaa !61
  tail call void @llvm.memset.p0.i64(ptr noundef nonnull align 8 dereferenceable(16) %31, i8 0, i64 16, i1 false)
  ret void
}